target datalayout = "e-m:e-p270:32:32-p271:32:32-p272:64:64-i64:64-i128:128-f80:128-n8:16:32:64-S128"
target triple = "x86_64-pc-linux-gnu"

; Function Attrs: null_pointer_is_valid sspstrong uwtable
define i32 @dissect_per_size_constrained_type(ptr noundef %0, i32 noundef %1, ptr noundef %2, ptr noundef %3, i32 noundef %4, ptr noundef %5, ptr noundef %6, i32 noundef %7, i32 noundef %8, i1 noundef zeroext %9) #0 {
  %11 = alloca ptr, align 8
  %12 = alloca i32, align 4
  %13 = alloca ptr, align 8
  %14 = alloca ptr, align 8
  %15 = alloca i32, align 4
  %16 = alloca ptr, align 8
  %17 = alloca ptr, align 8
  %18 = alloca i32, align 4
  %19 = alloca i32, align 4
  %20 = alloca i8, align 1
  store ptr %0, ptr %11, align 8
  store i32 %1, ptr %12, align 4
  store ptr %2, ptr %13, align 8
  store ptr %3, ptr %14, align 8
  store i32 %4, ptr %15, align 4
  store ptr %5, ptr %16, align 8
  store ptr %6, ptr %17, align 8
  store i32 %7, ptr %18, align 4
  store i32 %8, ptr %19, align 4
  %21 = zext i1 %9 to i8
  store i8 %21, ptr %20, align 1
  %22 = load ptr, ptr %13, align 8
  %23 = load ptr, ptr %17, align 8
  call void @asn1_stack_frame_push(ptr noundef %22, ptr noundef %23)
  %24 = load ptr, ptr %13, align 8
  %25 = load i32, ptr %18, align 4
  call void @asn1_param_push_integer(ptr noundef %24, i32 noundef %25)
  %26 = load ptr, ptr %13, align 8
  %27 = load i32, ptr %19, align 4
  call void @asn1_param_push_integer(ptr noundef %26, i32 noundef %27)
  %28 = load ptr, ptr %13, align 8
  %29 = load i8, ptr %20, align 1, !range !6, !noundef !7
  %30 = trunc i8 %29 to i1
  call void @asn1_param_push_boolean(ptr noundef %28, i1 noundef zeroext %30)
  %31 = load ptr, ptr %16, align 8
  %32 = load ptr, ptr %11, align 8
  %33 = load i32, ptr %12, align 4
  %34 = load ptr, ptr %13, align 8
  %35 = load ptr, ptr %14, align 8
  %36 = load i32, ptr %15, align 4
  %37 = call i32 %31(ptr noundef %32, i32 noundef %33, ptr noundef %34, ptr noundef %35, i32 noundef %36)
  store i32 %37, ptr %12, align 4
  %38 = load ptr, ptr %13, align 8
  %39 = load ptr, ptr %17, align 8
  call void @asn1_stack_frame_pop(ptr noundef %38, ptr noundef %39)
  %40 = load i32, ptr %12, align 4
  ret i32 %40
}