; Function Attrs: null_pointer_is_valid sspstrong uwtable
define i32 @dissect_per_size_constrained_type(ptr noundef %0, i32 noundef %1, ptr noundef %2, ptr noundef %3, i32 noundef %4, ptr noundef readonly captures(none) %5, ptr noundef %6, i32 noundef %7, i32 noundef %8, i1 noundef zeroext %9) local_unnamed_addr #0 {
  tail call void @asn1_stack_frame_push(ptr noundef %2, ptr noundef %6)
  tail call void @asn1_param_push_integer(ptr noundef %2, i32 noundef %7)
  tail call void @asn1_param_push_integer(ptr noundef %2, i32 noundef %8)
  tail call void @asn1_param_push_boolean(ptr noundef %2, i1 noundef zeroext %9)
  %11 = tail call i32 %5(ptr noundef %0, i32 noundef %1, ptr noundef %2, ptr noundef %3, i32 noundef %4)
  tail call void @asn1_stack_frame_pop(ptr noundef %2, ptr noundef %6)
  ret i32 %11
}